target datalayout = "e-m:e-p270:32:32-p271:32:32-p272:64:64-i64:64-i128:128-f80:128-n8:16:32:64-S128"
target triple = "x86_64-pc-linux-gnu"

%struct.expert_field = type { i32, i32 }

@hf_openflow_v5_meter_band_type = internal global i32 0, align 4
@hf_openflow_v5_meter_band_len = internal global i32 0, align 4
@hf_openflow_v5_meter_band_rate = internal global i32 0, align 4
@hf_openflow_v5_meter_band_burst_size = internal global i32 0, align 4
@hf_openflow_v5_meter_band_drop_pad = internal global i32 0, align 4
@hf_openflow_v5_meter_band_dscp_remark_prec_level = internal global i32 0, align 4
@hf_openflow_v5_meter_band_dscp_remark_pad = internal global i32 0, align 4
@hf_openflow_v5_meter_band_experimenter_experimenter = internal global i32 0, align 4
@ett_openflow_v5_meter_band = internal global i32 0, align 4
@ei_openflow_v5_meter_band_undecoded = internal global %struct.expert_field zeroinitializer, align 4
@.str.965 = private unnamed_addr constant [25 x i8] c"Unknown meter band body.\00", align 1
@ei_openflow_v5_length_too_short = internal global %struct.expert_field zeroinitializer, align 4
@.str.1491 = private unnamed_addr constant [11 x i8] c"Meter band\00", align 1
@.str.1492 = private unnamed_addr constant [30 x i8] c"Experimenter meter band body.\00", align 1

; Function Attrs: null_pointer_is_valid sspstrong uwtable
define internal i32 @dissect_openflow_meter_band_v5(ptr noundef %0, ptr noundef %1, ptr noundef %2, i32 noundef %3, i16 noundef zeroext %4) #0 {
  %6 = alloca i32, align 4
  %7 = alloca ptr, align 8
  %8 = alloca ptr, align 8
  %9 = alloca ptr, align 8
  %10 = alloca i32, align 4
  %11 = alloca i16, align 2
  %12 = alloca ptr, align 8
  %13 = alloca ptr, align 8
  %14 = alloca i16, align 2
  %15 = alloca i16, align 2
  %16 = alloca i32, align 4
  store ptr %0, ptr %7, align 8
  store ptr %1, ptr %8, align 8
  store ptr %2, ptr %9, align 8
  store i32 %3, ptr %10, align 4
  store i16 %4, ptr %11, align 2
  call void @llvm.lifetime.start.p0(i64 8, ptr %12) #5
  call void @llvm.lifetime.start.p0(i64 8, ptr %13) #5
  call void @llvm.lifetime.start.p0(i64 2, ptr %14) #5
  call void @llvm.lifetime.start.p0(i64 2, ptr %15) #5
  %17 = load ptr, ptr %9, align 8
  %18 = load ptr, ptr %7, align 8
  %19 = load i32, ptr %10, align 4
  %20 = load i32, ptr @ett_openflow_v5_meter_band, align 4
  %21 = call ptr @proto_tree_add_subtree(ptr noundef %17, ptr noundef %18, i32 noundef %19, i32 noundef -1, i32 noundef %20, ptr noundef %12, ptr noundef @.str.1491)
  store ptr %21, ptr %13, align 8
  %22 = load ptr, ptr %7, align 8
  %23 = load i32, ptr %10, align 4
  %24 = call zeroext i16 @tvb_get_ntohs(ptr noundef %22, i32 noundef %23)
  store i16 %24, ptr %14, align 2
  %25 = load ptr, ptr %13, align 8
  %26 = load i32, ptr @hf_openflow_v5_meter_band_type, align 4
  %27 = load ptr, ptr %7, align 8
  %28 = load i32, ptr %10, align 4
  %29 = call ptr @proto_tree_add_item(ptr noundef %25, i32 noundef %26, ptr noundef %27, i32 noundef %28, i32 noundef 2, i32 noundef 0)
  %30 = load i32, ptr %10, align 4
  %31 = add i32 %30, 2
  store i32 %31, ptr %10, align 4
  %32 = load ptr, ptr %7, align 8
  %33 = load i32, ptr %10, align 4
  %34 = call zeroext i16 @tvb_get_ntohs(ptr noundef %32, i32 noundef %33)
  store i16 %34, ptr %15, align 2
  %35 = load ptr, ptr %12, align 8
  %36 = load i16, ptr %15, align 2
  %37 = zext i16 %36 to i32
  call void @proto_item_set_len(ptr noundef %35, i32 noundef %37)
  %38 = load ptr, ptr %13, align 8
  %39 = load i32, ptr @hf_openflow_v5_meter_band_len, align 4
  %40 = load ptr, ptr %7, align 8
  %41 = load i32, ptr %10, align 4
  %42 = call ptr @proto_tree_add_item(ptr noundef %38, i32 noundef %39, ptr noundef %40, i32 noundef %41, i32 noundef 2, i32 noundef 0)
  store ptr %42, ptr %12, align 8
  %43 = load i32, ptr %10, align 4
  %44 = add i32 %43, 2
  store i32 %44, ptr %10, align 4
  %45 = load ptr, ptr %13, align 8
  %46 = load i32, ptr @hf_openflow_v5_meter_band_rate, align 4
  %47 = load ptr, ptr %7, align 8
  %48 = load i32, ptr %10, align 4
  %49 = call ptr @proto_tree_add_item(ptr noundef %45, i32 noundef %46, ptr noundef %47, i32 noundef %48, i32 noundef 4, i32 noundef 0)
  %50 = load i32, ptr %10, align 4
  %51 = add i32 %50, 4
  store i32 %51, ptr %10, align 4
  %52 = load ptr, ptr %13, align 8
  %53 = load i32, ptr @hf_openflow_v5_meter_band_burst_size, align 4
  %54 = load ptr, ptr %7, align 8
  %55 = load i32, ptr %10, align 4
  %56 = call ptr @proto_tree_add_item(ptr noundef %52, i32 noundef %53, ptr noundef %54, i32 noundef %55, i32 noundef 4, i32 noundef 0)
  %57 = load i32, ptr %10, align 4
  %58 = add i32 %57, 4
  store i32 %58, ptr %10, align 4
  %59 = load i16, ptr %15, align 2
  %60 = zext i16 %59 to i32
  %61 = icmp slt i32 %60, 12
  br i1 %61, label %62, label %67

62:                                               ; preds = %5
  %63 = load ptr, ptr %8, align 8
  %64 = load ptr, ptr %12, align 8
  %65 = call ptr @expert_add_info(ptr noundef %63, ptr noundef %64, ptr noundef @ei_openflow_v5_length_too_short)
  %66 = load i32, ptr %10, align 4
  store i32 %66, ptr %6, align 4
  store i32 1, ptr %16, align 4
  br label %134

67:                                               ; preds = %5
  %68 = load i16, ptr %14, align 2
  %69 = zext i16 %68 to i32
  switch i32 %69, label %116 [
    i32 1, label %70
    i32 2, label %78
    i32 65535, label %93
  ]

70:                                               ; preds = %67
  %71 = load ptr, ptr %13, align 8
  %72 = load i32, ptr @hf_openflow_v5_meter_band_drop_pad, align 4
  %73 = load ptr, ptr %7, align 8
  %74 = load i32, ptr %10, align 4
  %75 = call ptr @proto_tree_add_item(ptr noundef %71, i32 noundef %72, ptr noundef %73, i32 noundef %74, i32 noundef 4, i32 noundef 0)
  %76 = load i32, ptr %10, align 4
  %77 = add i32 %76, 4
  store i32 %77, ptr %10, align 4
  br label %132

78:                                               ; preds = %67
  %79 = load ptr, ptr %13, align 8
  %80 = load i32, ptr @hf_openflow_v5_meter_band_dscp_remark_prec_level, align 4
  %81 = load ptr, ptr %7, align 8
  %82 = load i32, ptr %10, align 4
  %83 = call ptr @proto_tree_add_item(ptr noundef %79, i32 noundef %80, ptr noundef %81, i32 noundef %82, i32 noundef 1, i32 noundef 0)
  %84 = load i32, ptr %10, align 4
  %85 = add i32 %84, 1
  store i32 %85, ptr %10, align 4
  %86 = load ptr, ptr %13, align 8
  %87 = load i32, ptr @hf_openflow_v5_meter_band_dscp_remark_pad, align 4
  %88 = load ptr, ptr %7, align 8
  %89 = load i32, ptr %10, align 4
  %90 = call ptr @proto_tree_add_item(ptr noundef %86, i32 noundef %87, ptr noundef %88, i32 noundef %89, i32 noundef 3, i32 noundef 0)
  %91 = load i32, ptr %10, align 4
  %92 = add i32 %91, 3
  store i32 %92, ptr %10, align 4
  br label %132

93:                                               ; preds = %67
  %94 = load ptr, ptr %13, align 8
  %95 = load i32, ptr @hf_openflow_v5_meter_band_experimenter_experimenter, align 4
  %96 = load ptr, ptr %7, align 8
  %97 = load i32, ptr %10, align 4
  %98 = call ptr @proto_tree_add_item(ptr noundef %94, i32 noundef %95, ptr noundef %96, i32 noundef %97, i32 noundef 4, i32 noundef 0)
  %99 = load i32, ptr %10, align 4
  %100 = add i32 %99, 4
  store i32 %100, ptr %10, align 4
  %101 = load ptr, ptr %13, align 8
  %102 = load ptr, ptr %8, align 8
  %103 = load ptr, ptr %7, align 8
  %104 = load i32, ptr %10, align 4
  %105 = load i32, ptr %10, align 4
  %106 = sub i32 %105, 16
  %107 = load i16, ptr %15, align 2
  %108 = zext i16 %107 to i32
  %109 = add i32 %106, %108
  %110 = call ptr (ptr, ptr, ptr, ptr, i32, i32, ptr, ...) @proto_tree_add_expert_format(ptr noundef %101, ptr noundef %102, ptr noundef @ei_openflow_v5_meter_band_undecoded, ptr noundef %103, i32 noundef %104, i32 noundef %109, ptr noundef @.str.1492)
  %111 = load i16, ptr %15, align 2
  %112 = zext i16 %111 to i32
  %113 = sub i32 %112, 16
  %114 = load i32, ptr %10, align 4
  %115 = add i32 %114, %113
  store i32 %115, ptr %10, align 4
  br label %132

116:                                              ; preds = %67
  %117 = load ptr, ptr %13, align 8
  %118 = load ptr, ptr %8, align 8
  %119 = load ptr, ptr %7, align 8
  %120 = load i32, ptr %10, align 4
  %121 = load i32, ptr %10, align 4
  %122 = sub i32 %121, 12
  %123 = load i16, ptr %15, align 2
  %124 = zext i16 %123 to i32
  %125 = add i32 %122, %124
  %126 = call ptr (ptr, ptr, ptr, ptr, i32, i32, ptr, ...) @proto_tree_add_expert_format(ptr noundef %117, ptr noundef %118, ptr noundef @ei_openflow_v5_meter_band_undecoded, ptr noundef %119, i32 noundef %120, i32 noundef %125, ptr noundef @.str.965)
  %127 = load i16, ptr %15, align 2
  %128 = zext i16 %127 to i32
  %129 = sub i32 %128, 12
  %130 = load i32, ptr %10, align 4
  %131 = add i32 %130, %129
  store i32 %131, ptr %10, align 4
  br label %132

132:                                              ; preds = %116, %93, %78, %70
  %133 = load i32, ptr %10, align 4
  store i32 %133, ptr %6, align 4
  store i32 1, ptr %16, align 4
  br label %134

134:                                              ; preds = %132, %62
  call void @llvm.lifetime.end.p0(i64 2, ptr %15) #5
  call void @llvm.lifetime.end.p0(i64 2, ptr %14) #5
  call void @llvm.lifetime.end.p0(i64 8, ptr %13) #5
  call void @llvm.lifetime.end.p0(i64 8, ptr %12) #5
  %135 = load i32, ptr %6, align 4
  ret i32 %135
}