; Function Attrs: null_pointer_is_valid sspstrong uwtable
define internal fastcc range(i32 -2147483648, 196604) i32 @dissect_openflow_meter_band_v5(ptr noundef %0, ptr noundef %1, ptr noundef %2, i32 noundef range(i32 -2147483648, 131069) %3) unnamed_addr #0 {
  %5 = alloca ptr, align 8
  call void @llvm.lifetime.start.p0(i64 8, ptr nonnull %5) #4
  %6 = load i32, ptr @ett_openflow_v5_meter_band, align 4
  %7 = call ptr @proto_tree_add_subtree(ptr noundef %2, ptr noundef %0, i32 noundef %3, i32 noundef -1, i32 noundef %6, ptr noundef nonnull %5, ptr noundef nonnull @.str.1491)
  %8 = call zeroext i16 @tvb_get_ntohs(ptr noundef %0, i32 noundef %3)
  %9 = load i32, ptr @hf_openflow_v5_meter_band_type, align 4
  %10 = call ptr @proto_tree_add_item(ptr noundef %7, i32 noundef %9, ptr noundef %0, i32 noundef %3, i32 noundef 2, i32 noundef 0)
  %11 = add nsw i32 %3, 2
  %12 = call zeroext i16 @tvb_get_ntohs(ptr noundef %0, i32 noundef %11)
  %13 = load ptr, ptr %5, align 8
  %14 = zext i16 %12 to i32
  call void @proto_item_set_len(ptr noundef %13, i32 noundef %14)
  %15 = load i32, ptr @hf_openflow_v5_meter_band_len, align 4
  %16 = call ptr @proto_tree_add_item(ptr noundef %7, i32 noundef %15, ptr noundef %0, i32 noundef %11, i32 noundef 2, i32 noundef 0)
  store ptr %16, ptr %5, align 8
  %17 = add nsw i32 %3, 4
  %18 = load i32, ptr @hf_openflow_v5_meter_band_rate, align 4
  %19 = call ptr @proto_tree_add_item(ptr noundef %7, i32 noundef %18, ptr noundef %0, i32 noundef %17, i32 noundef 4, i32 noundef 0)
  %20 = add nsw i32 %3, 8
  %21 = load i32, ptr @hf_openflow_v5_meter_band_burst_size, align 4
  %22 = call ptr @proto_tree_add_item(ptr noundef %7, i32 noundef %21, ptr noundef %0, i32 noundef %20, i32 noundef 4, i32 noundef 0)
  %23 = add nsw i32 %3, 12
  %24 = icmp ult i16 %12, 12
  br i1 %24, label %25, label %28

25:                                               ; preds = %4
  %26 = load ptr, ptr %5, align 8
  %27 = call ptr @expert_add_info(ptr noundef %1, ptr noundef %26, ptr noundef nonnull @ei_openflow_v5_length_too_short)
  br label %48

28:                                               ; preds = %4
  switch i16 %8, label %44 [
    i16 1, label %29
    i16 2, label %32
    i16 -1, label %38
  ]

29:                                               ; preds = %28
  %30 = load i32, ptr @hf_openflow_v5_meter_band_drop_pad, align 4
  %31 = call ptr @proto_tree_add_item(ptr noundef %7, i32 noundef %30, ptr noundef %0, i32 noundef %23, i32 noundef 4, i32 noundef 0)
  br label %47

32:                                               ; preds = %28
  %33 = load i32, ptr @hf_openflow_v5_meter_band_dscp_remark_prec_level, align 4
  %34 = call ptr @proto_tree_add_item(ptr noundef %7, i32 noundef %33, ptr noundef %0, i32 noundef %23, i32 noundef 1, i32 noundef 0)
  %35 = add nsw i32 %3, 13
  %36 = load i32, ptr @hf_openflow_v5_meter_band_dscp_remark_pad, align 4
  %37 = call ptr @proto_tree_add_item(ptr noundef %7, i32 noundef %36, ptr noundef %0, i32 noundef %35, i32 noundef 3, i32 noundef 0)
  br label %47

38:                                               ; preds = %28
  %39 = load i32, ptr @hf_openflow_v5_meter_band_experimenter_experimenter, align 4
  %40 = call ptr @proto_tree_add_item(ptr noundef %7, i32 noundef %39, ptr noundef %0, i32 noundef %23, i32 noundef 4, i32 noundef 0)
  %41 = add nsw i32 %3, 16
  %42 = add nsw i32 %3, %14
  %43 = call ptr (ptr, ptr, ptr, ptr, i32, i32, ptr, ...) @proto_tree_add_expert_format(ptr noundef %7, ptr noundef %1, ptr noundef nonnull @ei_openflow_v5_meter_band_undecoded, ptr noundef %0, i32 noundef %41, i32 noundef %42, ptr noundef nonnull @.str.1492)
  br label %47

44:                                               ; preds = %28
  %45 = add nsw i32 %3, %14
  %46 = call ptr (ptr, ptr, ptr, ptr, i32, i32, ptr, ...) @proto_tree_add_expert_format(ptr noundef %7, ptr noundef %1, ptr noundef nonnull @ei_openflow_v5_meter_band_undecoded, ptr noundef %0, i32 noundef %23, i32 noundef %45, ptr noundef nonnull @.str.965)
  br label %47

47:                                               ; preds = %44, %38, %32, %29
  %.pn = phi i32 [ %14, %44 ], [ %14, %38 ], [ 16, %32 ], [ 16, %29 ]
  %.061 = add nsw i32 %.pn, %3
  br label %48

48:                                               ; preds = %47, %25
  %.0 = phi i32 [ %23, %25 ], [ %.061, %47 ]
  call void @llvm.lifetime.end.p0(i64 8, ptr nonnull %5) #4
  ret i32 %.0
}